target datalayout = "e-m:e-p270:32:32-p271:32:32-p272:64:64-i64:64-i128:128-f80:128-n8:16:32:64-S128"
target triple = "x86_64-pc-linux-gnu"

%struct.aeEventLoop = type { i32, i32, i64, i32, ptr, ptr, ptr, i32, ptr, ptr, ptr, i32, [2 x ptr] }
%struct.aeFileEvent = type { i32, ptr, ptr, ptr }
%struct.aeApiState = type { i32, ptr }

; Function Attrs: nounwind uwtable
define internal i32 @aeApiCreate(ptr noundef %0) #0 {
  %2 = alloca i32, align 4
  %3 = alloca ptr, align 8
  %4 = alloca ptr, align 8
  %5 = alloca i32, align 4
  store ptr %0, ptr %3, align 8, !tbaa !9
  call void @llvm.lifetime.start.p0(i64 8, ptr %4) #10
  %6 = call noalias ptr @zmalloc(i64 noundef 16) #11
  store ptr %6, ptr %4, align 8, !tbaa !32
  %7 = load ptr, ptr %4, align 8, !tbaa !32
  %8 = icmp ne ptr %7, null
  br i1 %8, label %10, label %9

9:                                                ; preds = %1
  store i32 -1, ptr %2, align 4
  store i32 1, ptr %5, align 4
  br label %46

10:                                               ; preds = %1
  %11 = load ptr, ptr %3, align 8, !tbaa !9
  %12 = getelementptr inbounds nuw %struct.aeEventLoop, ptr %11, i32 0, i32 1
  %13 = load i32, ptr %12, align 4, !tbaa !20
  %14 = sext i32 %13 to i64
  %15 = mul i64 12, %14
  %16 = call noalias ptr @zmalloc(i64 noundef %15) #11
  %17 = load ptr, ptr %4, align 8, !tbaa !32
  %18 = getelementptr inbounds nuw %struct.aeApiState, ptr %17, i32 0, i32 1
  store ptr %16, ptr %18, align 8, !tbaa !34
  %19 = load ptr, ptr %4, align 8, !tbaa !32
  %20 = getelementptr inbounds nuw %struct.aeApiState, ptr %19, i32 0, i32 1
  %21 = load ptr, ptr %20, align 8, !tbaa !34
  %22 = icmp ne ptr %21, null
  br i1 %22, label %25, label %23

23:                                               ; preds = %10
  %24 = load ptr, ptr %4, align 8, !tbaa !32
  call void @zfree(ptr noundef %24)
  store i32 -1, ptr %2, align 4
  store i32 1, ptr %5, align 4
  br label %46

25:                                               ; preds = %10
  %26 = call i32 @epoll_create(i32 noundef 1024) #10
  %27 = load ptr, ptr %4, align 8, !tbaa !32
  %28 = getelementptr inbounds nuw %struct.aeApiState, ptr %27, i32 0, i32 0
  store i32 %26, ptr %28, align 8, !tbaa !37
  %29 = load ptr, ptr %4, align 8, !tbaa !32
  %30 = getelementptr inbounds nuw %struct.aeApiState, ptr %29, i32 0, i32 0
  %31 = load i32, ptr %30, align 8, !tbaa !37
  %32 = icmp eq i32 %31, -1
  br i1 %32, label %33, label %38

33:                                               ; preds = %25
  %34 = load ptr, ptr %4, align 8, !tbaa !32
  %35 = getelementptr inbounds nuw %struct.aeApiState, ptr %34, i32 0, i32 1
  %36 = load ptr, ptr %35, align 8, !tbaa !34
  call void @zfree(ptr noundef %36)
  %37 = load ptr, ptr %4, align 8, !tbaa !32
  call void @zfree(ptr noundef %37)
  store i32 -1, ptr %2, align 4
  store i32 1, ptr %5, align 4
  br label %46

38:                                               ; preds = %25
  %39 = load ptr, ptr %4, align 8, !tbaa !32
  %40 = getelementptr inbounds nuw %struct.aeApiState, ptr %39, i32 0, i32 0
  %41 = load i32, ptr %40, align 8, !tbaa !37
  %42 = call i32 @anetCloexec(i32 noundef %41)
  %43 = load ptr, ptr %4, align 8, !tbaa !32
  %44 = load ptr, ptr %3, align 8, !tbaa !9
  %45 = getelementptr inbounds nuw %struct.aeEventLoop, ptr %44, i32 0, i32 8
  store ptr %43, ptr %45, align 8, !tbaa !38
  store i32 0, ptr %2, align 4
  store i32 1, ptr %5, align 4
  br label %46

46:                                               ; preds = %38, %33, %23, %9
  call void @llvm.lifetime.end.p0(i64 8, ptr %4) #10
  %47 = load i32, ptr %2, align 4
  ret i32 %47
}

; Function Attrs: nounwind uwtable
define dso_local ptr @aeCreateEventLoop(i32 noundef %0) #0 {
  %2 = alloca ptr, align 8
  %3 = alloca i32, align 4
  %4 = alloca ptr, align 8
  %5 = alloca i32, align 4
  %6 = alloca i32, align 4
  store i32 %0, ptr %3, align 4, !tbaa !5
  call void @llvm.lifetime.start.p0(i64 8, ptr %4) #10
  call void @llvm.lifetime.start.p0(i64 4, ptr %5) #10
  %7 = call ptr @monotonicInit()
  %8 = call noalias ptr @zmalloc(i64 noundef 104) #11
  store ptr %8, ptr %4, align 8, !tbaa !9
  %9 = icmp eq ptr %8, null
  br i1 %9, label %10, label %11

10:                                               ; preds = %1
  br label %92

11:                                               ; preds = %1
  %12 = load i32, ptr %3, align 4, !tbaa !5
  %13 = icmp slt i32 %12, 1024
  br i1 %13, label %14, label %16

14:                                               ; preds = %11
  %15 = load i32, ptr %3, align 4, !tbaa !5
  br label %17

16:                                               ; preds = %11
  br label %17

17:                                               ; preds = %16, %14
  %18 = phi i32 [ %15, %14 ], [ 1024, %16 ]
  %19 = load ptr, ptr %4, align 8, !tbaa !9
  %20 = getelementptr inbounds nuw %struct.aeEventLoop, ptr %19, i32 0, i32 3
  store i32 %18, ptr %20, align 8, !tbaa !12
  %21 = load ptr, ptr %4, align 8, !tbaa !9
  %22 = getelementptr inbounds nuw %struct.aeEventLoop, ptr %21, i32 0, i32 3
  %23 = load i32, ptr %22, align 8, !tbaa !12
  %24 = sext i32 %23 to i64
  %25 = mul i64 32, %24
  %26 = call noalias ptr @zmalloc(i64 noundef %25) #11
  %27 = load ptr, ptr %4, align 8, !tbaa !9
  %28 = getelementptr inbounds nuw %struct.aeEventLoop, ptr %27, i32 0, i32 4
  store ptr %26, ptr %28, align 8, !tbaa !18
  %29 = load ptr, ptr %4, align 8, !tbaa !9
  %30 = getelementptr inbounds nuw %struct.aeEventLoop, ptr %29, i32 0, i32 3
  %31 = load i32, ptr %30, align 8, !tbaa !12
  %32 = sext i32 %31 to i64
  %33 = mul i64 8, %32
  %34 = call noalias ptr @zmalloc(i64 noundef %33) #11
  %35 = load ptr, ptr %4, align 8, !tbaa !9
  %36 = getelementptr inbounds nuw %struct.aeEventLoop, ptr %35, i32 0, i32 5
  store ptr %34, ptr %36, align 8, !tbaa !19
  %37 = load ptr, ptr %4, align 8, !tbaa !9
  %38 = getelementptr inbounds nuw %struct.aeEventLoop, ptr %37, i32 0, i32 4
  %39 = load ptr, ptr %38, align 8, !tbaa !18
  %40 = icmp eq ptr %39, null
  br i1 %40, label %46, label %41

41:                                               ; preds = %17
  %42 = load ptr, ptr %4, align 8, !tbaa !9
  %43 = getelementptr inbounds nuw %struct.aeEventLoop, ptr %42, i32 0, i32 5
  %44 = load ptr, ptr %43, align 8, !tbaa !19
  %45 = icmp eq ptr %44, null
  br i1 %45, label %46, label %47

46:                                               ; preds = %41, %17
  br label %92

47:                                               ; preds = %41
  %48 = load i32, ptr %3, align 4, !tbaa !5
  %49 = load ptr, ptr %4, align 8, !tbaa !9
  %50 = getelementptr inbounds nuw %struct.aeEventLoop, ptr %49, i32 0, i32 1
  store i32 %48, ptr %50, align 4, !tbaa !20
  %51 = load ptr, ptr %4, align 8, !tbaa !9
  %52 = getelementptr inbounds nuw %struct.aeEventLoop, ptr %51, i32 0, i32 6
  store ptr null, ptr %52, align 8, !tbaa !21
  %53 = load ptr, ptr %4, align 8, !tbaa !9
  %54 = getelementptr inbounds nuw %struct.aeEventLoop, ptr %53, i32 0, i32 2
  store i64 0, ptr %54, align 8, !tbaa !22
  %55 = load ptr, ptr %4, align 8, !tbaa !9
  %56 = getelementptr inbounds nuw %struct.aeEventLoop, ptr %55, i32 0, i32 7
  store i32 0, ptr %56, align 8, !tbaa !23
  %57 = load ptr, ptr %4, align 8, !tbaa !9
  %58 = getelementptr inbounds nuw %struct.aeEventLoop, ptr %57, i32 0, i32 0
  store i32 -1, ptr %58, align 8, !tbaa !24
  %59 = load ptr, ptr %4, align 8, !tbaa !9
  %60 = getelementptr inbounds nuw %struct.aeEventLoop, ptr %59, i32 0, i32 9
  store ptr null, ptr %60, align 8, !tbaa !25
  %61 = load ptr, ptr %4, align 8, !tbaa !9
  %62 = getelementptr inbounds nuw %struct.aeEventLoop, ptr %61, i32 0, i32 10
  store ptr null, ptr %62, align 8, !tbaa !26
  %63 = load ptr, ptr %4, align 8, !tbaa !9
  %64 = getelementptr inbounds nuw %struct.aeEventLoop, ptr %63, i32 0, i32 11
  store i32 0, ptr %64, align 8, !tbaa !27
  %65 = load ptr, ptr %4, align 8, !tbaa !9
  %66 = getelementptr inbounds nuw %struct.aeEventLoop, ptr %65, i32 0, i32 12
  %67 = getelementptr inbounds [2 x ptr], ptr %66, i64 0, i64 0
  call void @llvm.memset.p0.i64(ptr align 8 %67, i8 0, i64 16, i1 false)
  %68 = load ptr, ptr %4, align 8, !tbaa !9
  %69 = call i32 @aeApiCreate(ptr noundef %68)
  %70 = icmp eq i32 %69, -1
  br i1 %70, label %71, label %72

71:                                               ; preds = %47
  br label %92

72:                                               ; preds = %47
  store i32 0, ptr %5, align 4, !tbaa !5
  br label %73

73:                                               ; preds = %87, %72
  %74 = load i32, ptr %5, align 4, !tbaa !5
  %75 = load ptr, ptr %4, align 8, !tbaa !9
  %76 = getelementptr inbounds nuw %struct.aeEventLoop, ptr %75, i32 0, i32 3
  %77 = load i32, ptr %76, align 8, !tbaa !12
  %78 = icmp slt i32 %74, %77
  br i1 %78, label %79, label %90

79:                                               ; preds = %73
  %80 = load ptr, ptr %4, align 8, !tbaa !9
  %81 = getelementptr inbounds nuw %struct.aeEventLoop, ptr %80, i32 0, i32 4
  %82 = load ptr, ptr %81, align 8, !tbaa !18
  %83 = load i32, ptr %5, align 4, !tbaa !5
  %84 = sext i32 %83 to i64
  %85 = getelementptr inbounds %struct.aeFileEvent, ptr %82, i64 %84
  %86 = getelementptr inbounds nuw %struct.aeFileEvent, ptr %85, i32 0, i32 0
  store i32 0, ptr %86, align 8, !tbaa !28
  br label %87

87:                                               ; preds = %79
  %88 = load i32, ptr %5, align 4, !tbaa !5
  %89 = add nsw i32 %88, 1
  store i32 %89, ptr %5, align 4, !tbaa !5
  br label %73, !llvm.loop !30

90:                                               ; preds = %73
  %91 = load ptr, ptr %4, align 8, !tbaa !9
  store ptr %91, ptr %2, align 8
  store i32 1, ptr %6, align 4
  br label %104

92:                                               ; preds = %71, %46, %10
  %93 = load ptr, ptr %4, align 8, !tbaa !9
  %94 = icmp ne ptr %93, null
  br i1 %94, label %95, label %103

95:                                               ; preds = %92
  %96 = load ptr, ptr %4, align 8, !tbaa !9
  %97 = getelementptr inbounds nuw %struct.aeEventLoop, ptr %96, i32 0, i32 4
  %98 = load ptr, ptr %97, align 8, !tbaa !18
  call void @zfree(ptr noundef %98)
  %99 = load ptr, ptr %4, align 8, !tbaa !9
  %100 = getelementptr inbounds nuw %struct.aeEventLoop, ptr %99, i32 0, i32 5
  %101 = load ptr, ptr %100, align 8, !tbaa !19
  call void @zfree(ptr noundef %101)
  %102 = load ptr, ptr %4, align 8, !tbaa !9
  call void @zfree(ptr noundef %102)
  br label %103

103:                                              ; preds = %95, %92
  store ptr null, ptr %2, align 8
  store i32 1, ptr %6, align 4
  br label %104

104:                                              ; preds = %103, %90
  call void @llvm.lifetime.end.p0(i64 4, ptr %5) #10
  call void @llvm.lifetime.end.p0(i64 8, ptr %4) #10
  %105 = load ptr, ptr %2, align 8
  ret ptr %105
}