; Function Attrs: nounwind uwtable
define dso_local noundef ptr @aeCreateEventLoop(i32 noundef %0) local_unnamed_addr #0 {
  %2 = tail call ptr @monotonicInit() #16
  %3 = tail call noalias dereferenceable_or_null(104) ptr @zmalloc(i64 noundef 104) #17
  %cond = icmp eq ptr %3, null
  br i1 %cond, label %.loopexit, label %4

4:                                                ; preds = %1
  %5 = tail call i32 @llvm.smin.i32(i32 %0, i32 1024)
  %6 = getelementptr inbounds nuw i8, ptr %3, i64 16
  store i32 %5, ptr %6, align 8, !tbaa !5
  %7 = sext i32 %5 to i64
  %8 = shl nsw i64 %7, 5
  %9 = tail call noalias ptr @zmalloc(i64 noundef %8) #17
  %10 = getelementptr inbounds nuw i8, ptr %3, i64 24
  store ptr %9, ptr %10, align 8, !tbaa !15
  %11 = shl nsw i64 %7, 3
  %12 = tail call noalias ptr @zmalloc(i64 noundef %11) #17
  %13 = getelementptr inbounds nuw i8, ptr %3, i64 32
  store ptr %12, ptr %13, align 8, !tbaa !16
  %14 = icmp eq ptr %9, null
  %15 = icmp eq ptr %12, null
  %or.cond = select i1 %14, i1 true, i1 %15
  br i1 %or.cond, label %aeApiCreate.exit.thread, label %16

16:                                               ; preds = %4
  %17 = getelementptr inbounds nuw i8, ptr %3, i64 4
  store i32 %0, ptr %17, align 4, !tbaa !17
  %18 = getelementptr inbounds nuw i8, ptr %3, i64 40
  store ptr null, ptr %18, align 8, !tbaa !18
  %19 = getelementptr inbounds nuw i8, ptr %3, i64 8
  store i64 0, ptr %19, align 8, !tbaa !19
  %20 = getelementptr inbounds nuw i8, ptr %3, i64 48
  store i32 0, ptr %20, align 8, !tbaa !20
  store i32 -1, ptr %3, align 8, !tbaa !21
  %21 = getelementptr inbounds nuw i8, ptr %3, i64 64
  %22 = getelementptr inbounds nuw i8, ptr %3, i64 88
  tail call void @llvm.memset.p0.i64(ptr noundef nonnull align 8 dereferenceable(16) %22, i8 0, i64 16, i1 false)
  tail call void @llvm.memset.p0.i64(ptr noundef nonnull align 8 dereferenceable(20) %21, i8 0, i64 20, i1 false)
  %23 = tail call noalias dereferenceable_or_null(16) ptr @zmalloc(i64 noundef 16) #17
  %.not.i = icmp eq ptr %23, null
  br i1 %.not.i, label %aeApiCreate.exit.thread, label %24

24:                                               ; preds = %16
  %25 = sext i32 %0 to i64
  %26 = mul nsw i64 %25, 12
  %27 = tail call noalias ptr @zmalloc(i64 noundef %26) #17
  %28 = getelementptr inbounds nuw i8, ptr %23, i64 8
  store ptr %27, ptr %28, align 8, !tbaa !22
  %.not14.i = icmp eq ptr %27, null
  br i1 %.not14.i, label %aeApiCreate.exit.thread.sink.split, label %29

29:                                               ; preds = %24
  %30 = tail call i32 @epoll_create(i32 noundef 1024) #16
  store i32 %30, ptr %23, align 8, !tbaa !25
  %31 = icmp eq i32 %30, -1
  br i1 %31, label %32, label %aeApiCreate.exit

32:                                               ; preds = %29
  %33 = load ptr, ptr %28, align 8, !tbaa !22
  tail call void @zfree(ptr noundef %33) #16
  br label %aeApiCreate.exit.thread.sink.split

aeApiCreate.exit:                                 ; preds = %29
  %34 = tail call i32 @anetCloexec(i32 noundef %30) #16
  %35 = getelementptr inbounds nuw i8, ptr %3, i64 56
  store ptr %23, ptr %35, align 8, !tbaa !26
  %36 = icmp sgt i32 %0, 0
  br i1 %36, label %.lr.ph, label %.loopexit

.lr.ph:                                           ; preds = %aeApiCreate.exit
  %wide.trip.count = zext nneg i32 %5 to i64
  br label %37

37:                                               ; preds = %.lr.ph, %37
  %indvars.iv = phi i64 [ 0, %.lr.ph ], [ %indvars.iv.next, %37 ]
  %38 = getelementptr inbounds nuw %struct.aeFileEvent, ptr %9, i64 %indvars.iv
  store i32 0, ptr %38, align 8, !tbaa !27
  %indvars.iv.next = add nuw nsw i64 %indvars.iv, 1
  %exitcond.not = icmp eq i64 %indvars.iv.next, %wide.trip.count
  br i1 %exitcond.not, label %.loopexit, label %37, !llvm.loop !29

aeApiCreate.exit.thread.sink.split:               ; preds = %24, %32
  tail call void @zfree(ptr noundef nonnull %23) #16
  br label %aeApiCreate.exit.thread

aeApiCreate.exit.thread:                          ; preds = %aeApiCreate.exit.thread.sink.split, %16, %4
  tail call void @zfree(ptr noundef %9) #16
  tail call void @zfree(ptr noundef %12) #16
  tail call void @zfree(ptr noundef nonnull %3) #16
  br label %.loopexit

.loopexit:                                        ; preds = %37, %aeApiCreate.exit, %1, %aeApiCreate.exit.thread
  %.030 = phi ptr [ null, %1 ], [ null, %aeApiCreate.exit.thread ], [ %3, %aeApiCreate.exit ], [ %3, %37 ]
  ret ptr %.030
}